target datalayout = "e-m:e-p270:32:32-p271:32:32-p272:64:64-i64:64-i128:128-f80:128-n8:16:32:64-S128"
target triple = "x86_64-pc-linux-gnu"

%struct.RStruct = type { %struct.RBasic, %union.anon }
%struct.RBasic = type { i64, i64 }
%union.anon = type { %struct.anon }
%struct.anon = type { i64, ptr }

; Function Attrs: inlinehint nounwind sspstrong willreturn memory(read) uwtable
define internal i64 @RB_FL_TEST_RAW(i64 noundef %0, i64 noundef %1) #7 {
  %3 = alloca i64, align 8
  %4 = alloca i64, align 8
  store i64 %0, ptr %3, align 8, !tbaa !7
  store i64 %1, ptr %4, align 8, !tbaa !7
  %5 = load i64, ptr %3, align 8, !tbaa !7
  %6 = inttoptr i64 %5 to ptr
  %7 = getelementptr inbounds nuw %struct.RBasic, ptr %6, i32 0, i32 0
  %8 = load i64, ptr %7, align 8, !tbaa !44
  %9 = load i64, ptr %4, align 8, !tbaa !7
  %10 = and i64 %8, %9
  ret i64 %10
}

; Function Attrs: inlinehint nounwind sspstrong uwtable
define internal ptr @RSTRUCT_CONST_PTR(i64 noundef %0) #3 {
  %2 = alloca ptr, align 8
  %3 = alloca i64, align 8
  %4 = alloca ptr, align 8
  %5 = alloca i32, align 4
  store i64 %0, ptr %3, align 8, !tbaa !7
  call void @llvm.lifetime.start.p0(i64 8, ptr %4) #18
  %6 = load i64, ptr %3, align 8, !tbaa !7
  %7 = inttoptr i64 %6 to ptr
  store ptr %7, ptr %4, align 8, !tbaa !42
  %8 = load i64, ptr %3, align 8, !tbaa !7
  %9 = call i64 @RB_FL_TEST_RAW(i64 noundef %8, i64 noundef 1040384) #21
  %10 = icmp ne i64 %9, 0
  br i1 %10, label %11, label %15

11:                                               ; preds = %1
  %12 = load ptr, ptr %4, align 8, !tbaa !42
  %13 = getelementptr inbounds nuw %struct.RStruct, ptr %12, i32 0, i32 1
  %14 = getelementptr inbounds [1 x i64], ptr %13, i64 0, i64 0
  store ptr %14, ptr %2, align 8
  store i32 1, ptr %5, align 4
  br label %20

15:                                               ; preds = %1
  %16 = load ptr, ptr %4, align 8, !tbaa !42
  %17 = getelementptr inbounds nuw %struct.RStruct, ptr %16, i32 0, i32 1
  %18 = getelementptr inbounds nuw %struct.anon, ptr %17, i32 0, i32 1
  %19 = load ptr, ptr %18, align 8, !tbaa !18
  store ptr %19, ptr %2, align 8
  store i32 1, ptr %5, align 4
  br label %20

20:                                               ; preds = %15, %11
  call void @llvm.lifetime.end.p0(i64 8, ptr %4) #18
  %21 = load ptr, ptr %2, align 8
  ret ptr %21
}

; Function Attrs: inlinehint nounwind sspstrong willreturn memory(none) uwtable
define internal zeroext i1 @RB_TEST(i64 noundef %0) #4 {
  %2 = alloca i64, align 8
  store i64 %0, ptr %2, align 8, !tbaa !7
  %3 = load i64, ptr %2, align 8, !tbaa !7
  %4 = and i64 %3, -5
  %5 = icmp ne i64 %4, 0
  ret i1 %5
}

; Function Attrs: inlinehint nounwind sspstrong uwtable
define internal i64 @RANGE_EXCL(i64 noundef %0) #3 {
  %2 = alloca i64, align 8
  store i64 %0, ptr %2, align 8, !tbaa !7
  %3 = load i64, ptr %2, align 8, !tbaa !7
  %4 = call i64 @internal_RSTRUCT_GET(i64 noundef %3, i64 noundef 2)
  ret i64 %4
}

; Function Attrs: nounwind sspstrong uwtable
define internal i32 @r_less(i64 noundef %0, i64 noundef %1) #0 {
  %3 = alloca i32, align 4
  %4 = alloca i64, align 8
  %5 = alloca i64, align 8
  %6 = alloca i64, align 8
  %7 = alloca i32, align 4
  store i64 %0, ptr %4, align 8, !tbaa !7
  store i64 %1, ptr %5, align 8, !tbaa !7
  call void @llvm.lifetime.start.p0(i64 8, ptr %6) #18
  %8 = load i64, ptr %4, align 8, !tbaa !7
  %9 = load i64, ptr %5, align 8, !tbaa !7
  %10 = call i64 (i64, i64, i32, ...) @rb_funcall(i64 noundef %8, i64 noundef 135, i32 noundef 1, i64 noundef %9)
  store i64 %10, ptr %6, align 8, !tbaa !7
  %11 = load i64, ptr %6, align 8, !tbaa !7
  %12 = call zeroext i1 @RB_NIL_P(i64 noundef %11) #19
  br i1 %12, label %13, label %14

13:                                               ; preds = %2
  store i32 2147483647, ptr %3, align 4
  store i32 1, ptr %7, align 4
  br label %19

14:                                               ; preds = %2
  %15 = load i64, ptr %6, align 8, !tbaa !7
  %16 = load i64, ptr %4, align 8, !tbaa !7
  %17 = load i64, ptr %5, align 8, !tbaa !7
  %18 = call i32 @rb_cmpint(i64 noundef %15, i64 noundef %16, i64 noundef %17)
  store i32 %18, ptr %3, align 4
  store i32 1, ptr %7, align 4
  br label %19

19:                                               ; preds = %14, %13
  call void @llvm.lifetime.end.p0(i64 8, ptr %6) #18
  %20 = load i32, ptr %3, align 4
  ret i32 %20
}

; Function Attrs: inlinehint nounwind sspstrong willreturn memory(none) uwtable
define internal zeroext i1 @RB_NIL_P(i64 noundef %0) #4 {
  %2 = alloca i64, align 8
  store i64 %0, ptr %2, align 8, !tbaa !7
  %3 = load i64, ptr %2, align 8, !tbaa !7
  %4 = icmp eq i64 %3, 4
  ret i1 %4
}

; Function Attrs: inlinehint nounwind sspstrong uwtable
define internal i64 @internal_RSTRUCT_GET(i64 noundef %0, i64 noundef %1) #3 {
  %3 = alloca i64, align 8
  %4 = alloca i64, align 8
  store i64 %0, ptr %3, align 8, !tbaa !7
  store i64 %1, ptr %4, align 8, !tbaa !7
  %5 = load i64, ptr %3, align 8, !tbaa !7
  %6 = call ptr @RSTRUCT_CONST_PTR(i64 noundef %5)
  %7 = load i64, ptr %4, align 8, !tbaa !7
  %8 = getelementptr i64, ptr %6, i64 %7
  %9 = load i64, ptr %8, align 8, !tbaa !7
  ret i64 %9
}

; Function Attrs: nounwind sspstrong uwtable
define internal i64 @r_cover_p(i64 noundef %0, i64 noundef %1, i64 noundef %2, i64 noundef %3) #0 {
  %5 = alloca i64, align 8
  %6 = alloca i64, align 8
  %7 = alloca i64, align 8
  %8 = alloca i64, align 8
  %9 = alloca i64, align 8
  %10 = alloca i32, align 4
  %11 = alloca i32, align 4
  store i64 %0, ptr %6, align 8, !tbaa !7
  store i64 %1, ptr %7, align 8, !tbaa !7
  store i64 %2, ptr %8, align 8, !tbaa !7
  store i64 %3, ptr %9, align 8, !tbaa !7
  %12 = load i64, ptr %7, align 8, !tbaa !7
  %13 = call zeroext i1 @RB_NIL_P(i64 noundef %12) #19
  br i1 %13, label %19, label %14

14:                                               ; preds = %4
  %15 = load i64, ptr %7, align 8, !tbaa !7
  %16 = load i64, ptr %9, align 8, !tbaa !7
  %17 = call i32 @r_less(i64 noundef %15, i64 noundef %16)
  %18 = icmp sle i32 %17, 0
  br i1 %18, label %19, label %38

19:                                               ; preds = %14, %4
  call void @llvm.lifetime.start.p0(i64 4, ptr %10) #18
  %20 = load i64, ptr %6, align 8, !tbaa !7
  %21 = call i64 @RANGE_EXCL(i64 noundef %20)
  %22 = call zeroext i1 @RB_TEST(i64 noundef %21) #19
  %23 = zext i1 %22 to i32
  store i32 %23, ptr %10, align 4, !tbaa !11
  %24 = load i64, ptr %8, align 8, !tbaa !7
  %25 = call zeroext i1 @RB_NIL_P(i64 noundef %24) #19
  br i1 %25, label %33, label %26

26:                                               ; preds = %19
  %27 = load i64, ptr %9, align 8, !tbaa !7
  %28 = load i64, ptr %8, align 8, !tbaa !7
  %29 = call i32 @r_less(i64 noundef %27, i64 noundef %28)
  %30 = load i32, ptr %10, align 4, !tbaa !11
  %31 = sub i32 0, %30
  %32 = icmp sle i32 %29, %31
  br i1 %32, label %33, label %34

33:                                               ; preds = %26, %19
  store i64 20, ptr %5, align 8
  store i32 1, ptr %11, align 4
  br label %35

34:                                               ; preds = %26
  store i32 0, ptr %11, align 4
  br label %35

35:                                               ; preds = %34, %33
  call void @llvm.lifetime.end.p0(i64 4, ptr %10) #18
  %36 = load i32, ptr %11, align 4
  switch i32 %36, label %41 [
    i32 0, label %37
    i32 1, label %39
  ]

37:                                               ; preds = %35
  br label %38

38:                                               ; preds = %37, %14
  store i64 0, ptr %5, align 8
  br label %39

39:                                               ; preds = %38, %35
  %40 = load i64, ptr %5, align 8
  ret i64 %40

41:                                               ; preds = %35
  unreachable
}

; Function Attrs: inlinehint nounwind sspstrong uwtable
define internal i64 @RANGE_END(i64 noundef %0) #3 {
  %2 = alloca i64, align 8
  store i64 %0, ptr %2, align 8, !tbaa !7
  %3 = load i64, ptr %2, align 8, !tbaa !7
  %4 = call i64 @internal_RSTRUCT_GET(i64 noundef %3, i64 noundef 1)
  ret i64 %4
}

; Function Attrs: inlinehint nounwind sspstrong uwtable
define internal i64 @RANGE_BEG(i64 noundef %0) #3 {
  %2 = alloca i64, align 8
  store i64 %0, ptr %2, align 8, !tbaa !7
  %3 = load i64, ptr %2, align 8, !tbaa !7
  %4 = inttoptr i64 %3 to ptr
  %5 = getelementptr inbounds nuw %struct.RStruct, ptr %4, i32 0, i32 1
  %6 = getelementptr [1 x i64], ptr %5, i64 0, i64 0
  %7 = load i64, ptr %6, align 8, !tbaa !18
  ret i64 %7
}

; Function Attrs: nounwind sspstrong uwtable
define internal i64 @range_eqq(i64 noundef %0, i64 noundef %1) #0 {
  %3 = alloca i64, align 8
  %4 = alloca i64, align 8
  store i64 %0, ptr %3, align 8, !tbaa !7
  store i64 %1, ptr %4, align 8, !tbaa !7
  %5 = load i64, ptr %3, align 8, !tbaa !7
  %6 = load i64, ptr %3, align 8, !tbaa !7
  %7 = call i64 @RANGE_BEG(i64 noundef %6)
  %8 = load i64, ptr %3, align 8, !tbaa !7
  %9 = call i64 @RANGE_END(i64 noundef %8)
  %10 = load i64, ptr %4, align 8, !tbaa !7
  %11 = call i64 @r_cover_p(i64 noundef %5, i64 noundef %7, i64 noundef %9, i64 noundef %10)
  ret i64 %11
}