; Function Attrs: nounwind sspstrong uwtable
define internal range(i64 0, 21) i64 @range_eqq(i64 noundef %0, i64 noundef %1) #0 {
  %3 = inttoptr i64 %0 to ptr
  %4 = getelementptr inbounds nuw i8, ptr %3, i64 16
  %5 = load i64, ptr %4, align 8, !tbaa !13
  %6 = load i64, ptr %3, align 8, !tbaa !11
  %7 = and i64 %6, 1040384
  %.not.i.i.i = icmp eq i64 %7, 0
  br i1 %.not.i.i.i, label %8, label %RANGE_END.exit

8:                                                ; preds = %2
  %9 = getelementptr inbounds nuw i8, ptr %3, i64 24
  %10 = load ptr, ptr %9, align 8, !tbaa !13
  br label %RANGE_END.exit

RANGE_END.exit:                                   ; preds = %2, %8
  %.0.i.i.i = phi ptr [ %10, %8 ], [ %4, %2 ]
  %11 = getelementptr i8, ptr %.0.i.i.i, i64 8
  %12 = load i64, ptr %11, align 8, !tbaa !7
  %13 = icmp eq i64 %5, 4
  br i1 %13, label %19, label %14

14:                                               ; preds = %RANGE_END.exit
  %15 = tail call i64 (i64, i64, i32, ...) @rb_funcall(i64 noundef %5, i64 noundef 135, i32 noundef 1, i64 noundef %1) #13
  %16 = icmp eq i64 %15, 4
  br i1 %16, label %r_cover_p.exit, label %r_less.exit.i

r_less.exit.i:                                    ; preds = %14
  %17 = tail call i32 @rb_cmpint(i64 noundef %15, i64 noundef %5, i64 noundef %1) #13
  %18 = icmp slt i32 %17, 1
  br i1 %18, label %r_less.exit.i._crit_edge, label %r_cover_p.exit

r_less.exit.i._crit_edge:                         ; preds = %r_less.exit.i
  %.pre = load i64, ptr %3, align 8, !tbaa !11
  br label %19

19:                                               ; preds = %r_less.exit.i._crit_edge, %RANGE_END.exit
  %20 = phi i64 [ %.pre, %r_less.exit.i._crit_edge ], [ %6, %RANGE_END.exit ]
  %21 = and i64 %20, 1040384
  %.not.i.i.i.i = icmp eq i64 %21, 0
  br i1 %.not.i.i.i.i, label %22, label %RANGE_EXCL.exit.i

22:                                               ; preds = %19
  %23 = getelementptr inbounds nuw i8, ptr %3, i64 24
  %24 = load ptr, ptr %23, align 8, !tbaa !13
  br label %RANGE_EXCL.exit.i

RANGE_EXCL.exit.i:                                ; preds = %19, %22
  %.0.i.i.i.i = phi ptr [ %24, %22 ], [ %4, %19 ]
  %25 = icmp eq i64 %12, 4
  br i1 %25, label %.thread.i, label %26

26:                                               ; preds = %RANGE_EXCL.exit.i
  %27 = getelementptr i8, ptr %.0.i.i.i.i, i64 16
  %28 = load i64, ptr %27, align 8, !tbaa !7
  %29 = tail call i64 (i64, i64, i32, ...) @rb_funcall(i64 noundef %1, i64 noundef 135, i32 noundef 1, i64 noundef %12) #13
  %30 = icmp eq i64 %29, 4
  br i1 %30, label %r_cover_p.exit, label %r_less.exit12.i

r_less.exit12.i:                                  ; preds = %26
  %31 = and i64 %28, -5
  %32 = icmp ne i64 %31, 0
  %.neg.i = sext i1 %32 to i32
  %33 = tail call i32 @rb_cmpint(i64 noundef %29, i64 noundef %1, i64 noundef %12) #13
  %.not.i = icmp sgt i32 %33, %.neg.i
  br i1 %.not.i, label %r_cover_p.exit, label %.thread.i

.thread.i:                                        ; preds = %r_less.exit12.i, %RANGE_EXCL.exit.i
  br label %r_cover_p.exit

r_cover_p.exit:                                   ; preds = %14, %r_less.exit.i, %26, %r_less.exit12.i, %.thread.i
  %.1.i = phi i64 [ 20, %.thread.i ], [ 0, %r_less.exit12.i ], [ 0, %r_less.exit.i ], [ 0, %14 ], [ 0, %26 ]
  ret i64 %.1.i
}